target datalayout = "e-m:e-p270:32:32-p271:32:32-p272:64:64-i64:64-i128:128-f80:128-n8:16:32:64-S128"
target triple = "x86_64-pc-linux-gnu"

%"struct.std::_Rb_tree_header" = type { %"struct.std::_Rb_tree_node_base", i64 }
%"struct.std::_Rb_tree_node_base" = type { i32, ptr, ptr, ptr }
%"class.std::_Rb_tree.195" = type { %"struct.std::_Rb_tree<LIEF::MachO::RelocationDyld *, LIEF::MachO::RelocationDyld *, std::_Identity<LIEF::MachO::RelocationDyld *>, (lambda at /home/dtcxzyw/WorkSpace/Projects/compilers/llvm-opt-benchmark/bench/lief/LIEF/src/MachO/DyldInfo.cpp:851:14)>::_Rb_tree_impl" }
%"struct.std::_Rb_tree<LIEF::MachO::RelocationDyld *, LIEF::MachO::RelocationDyld *, std::_Identity<LIEF::MachO::RelocationDyld *>, (lambda at /home/dtcxzyw/WorkSpace/Projects/compilers/llvm-opt-benchmark/bench/lief/LIEF/src/MachO/DyldInfo.cpp:851:14)>::_Rb_tree_impl" = type { [8 x i8], %"struct.std::_Rb_tree_header" }
%"struct.std::_Rb_tree_node.348" = type { %"struct.std::_Rb_tree_node_base", %"struct.__gnu_cxx::__aligned_membuf.349" }
%"struct.__gnu_cxx::__aligned_membuf.349" = type { [8 x i8] }

; Function Attrs: mustprogress nounwind uwtable
define linkonce_odr hidden noundef ptr @_ZN9__gnu_cxx16__aligned_membufIPN4LIEF5MachO14RelocationDyldEE7_M_addrEv(ptr noundef nonnull align 8 dereferenceable(8) %0) #0 comdat align 2 {
  %2 = alloca ptr, align 8
  store ptr %0, ptr %2, align 8, !tbaa !722
  %3 = load ptr, ptr %2, align 8
  %4 = getelementptr inbounds nuw %"struct.__gnu_cxx::__aligned_membuf.349", ptr %3, i32 0, i32 0
  ret ptr %4
}

; Function Attrs: mustprogress nounwind uwtable
define linkonce_odr hidden void @_ZNSt15__new_allocatorISt13_Rb_tree_nodeIPN4LIEF5MachO14RelocationDyldEEE10deallocateEPS5_m(ptr noundef nonnull align 1 dereferenceable(1) %0, ptr noundef %1, i64 noundef %2) #0 comdat align 2 {
  %4 = alloca ptr, align 8
  %5 = alloca ptr, align 8
  %6 = alloca i64, align 8
  store ptr %0, ptr %4, align 8, !tbaa !720
  store ptr %1, ptr %5, align 8, !tbaa !715
  store i64 %2, ptr %6, align 8, !tbaa !13
  %7 = load ptr, ptr %5, align 8, !tbaa !715
  %8 = load i64, ptr %6, align 8, !tbaa !13
  %9 = mul i64 %8, 40
  call void @_ZdlPvm(ptr noundef %7, i64 noundef %9) #22
  ret void
}

; Function Attrs: mustprogress nounwind uwtable
define linkonce_odr hidden void @_ZNSt15__new_allocatorISt13_Rb_tree_nodeIPN4LIEF5MachO14RelocationDyldEEE7destroyIS4_EEvPT_(ptr noundef nonnull align 1 dereferenceable(1) %0, ptr noundef %1) #0 comdat align 2 {
  %3 = alloca ptr, align 8
  %4 = alloca ptr, align 8
  store ptr %0, ptr %3, align 8, !tbaa !720
  store ptr %1, ptr %4, align 8, !tbaa !257
  ret void
}

; Function Attrs: mustprogress nounwind uwtable
define linkonce_odr hidden noundef ptr @_ZN9__gnu_cxx16__aligned_membufIPN4LIEF5MachO14RelocationDyldEE6_M_ptrEv(ptr noundef nonnull align 8 dereferenceable(8) %0) #0 comdat align 2 {
  %2 = alloca ptr, align 8
  store ptr %0, ptr %2, align 8, !tbaa !722
  %3 = load ptr, ptr %2, align 8
  %4 = call noundef ptr @_ZN9__gnu_cxx16__aligned_membufIPN4LIEF5MachO14RelocationDyldEE7_M_addrEv(ptr noundef nonnull align 8 dereferenceable(8) %3) #21
  ret ptr %4
}

; Function Attrs: mustprogress nounwind uwtable
define linkonce_odr hidden void @_ZNSt16allocator_traitsISaISt13_Rb_tree_nodeIPN4LIEF5MachO14RelocationDyldEEEE10deallocateERS6_PS5_m(ptr noundef nonnull align 1 dereferenceable(1) %0, ptr noundef %1, i64 noundef %2) #0 comdat align 2 {
  %4 = alloca ptr, align 8
  %5 = alloca ptr, align 8
  %6 = alloca i64, align 8
  store ptr %0, ptr %4, align 8, !tbaa !718
  store ptr %1, ptr %5, align 8, !tbaa !715
  store i64 %2, ptr %6, align 8, !tbaa !13
  %7 = load ptr, ptr %4, align 8, !tbaa !718
  %8 = load ptr, ptr %5, align 8, !tbaa !715
  %9 = load i64, ptr %6, align 8, !tbaa !13
  call void @_ZNSt15__new_allocatorISt13_Rb_tree_nodeIPN4LIEF5MachO14RelocationDyldEEE10deallocateEPS5_m(ptr noundef nonnull align 1 dereferenceable(1) %7, ptr noundef %8, i64 noundef %9)
  ret void
}

; Function Attrs: mustprogress nounwind uwtable
define linkonce_odr hidden void @_ZNSt16allocator_traitsISaISt13_Rb_tree_nodeIPN4LIEF5MachO14RelocationDyldEEEE7destroyIS4_EEvRS6_PT_(ptr noundef nonnull align 1 dereferenceable(1) %0, ptr noundef %1) #0 comdat align 2 {
  %3 = alloca ptr, align 8
  %4 = alloca ptr, align 8
  store ptr %0, ptr %3, align 8, !tbaa !718
  store ptr %1, ptr %4, align 8, !tbaa !257
  %5 = load ptr, ptr %3, align 8, !tbaa !718
  %6 = load ptr, ptr %4, align 8, !tbaa !257
  call void @_ZNSt15__new_allocatorISt13_Rb_tree_nodeIPN4LIEF5MachO14RelocationDyldEEE7destroyIS4_EEvPT_(ptr noundef nonnull align 1 dereferenceable(1) %5, ptr noundef %6) #21
  ret void
}

; Function Attrs: mustprogress nounwind uwtable
define linkonce_odr hidden noundef ptr @_ZNSt13_Rb_tree_nodeIPN4LIEF5MachO14RelocationDyldEE9_M_valptrEv(ptr noundef nonnull align 8 dereferenceable(40) %0) #0 comdat align 2 {
  %2 = alloca ptr, align 8
  store ptr %0, ptr %2, align 8, !tbaa !715
  %3 = load ptr, ptr %2, align 8
  %4 = getelementptr inbounds nuw %"struct.std::_Rb_tree_node.348", ptr %3, i32 0, i32 1
  %5 = call noundef ptr @_ZN9__gnu_cxx16__aligned_membufIPN4LIEF5MachO14RelocationDyldEE6_M_ptrEv(ptr noundef nonnull align 8 dereferenceable(8) %4) #21
  ret ptr %5
}

; Function Attrs: mustprogress nounwind uwtable
define internal noundef nonnull align 1 dereferenceable(1) ptr @"_ZNSt8_Rb_treeIPN4LIEF5MachO14RelocationDyldES3_St9_IdentityIS3_EZNS1_8DyldInfo18update_rebase_infoERNS0_15vector_iostreamEE3$_0SaIS3_EE21_M_get_Node_allocatorEv"(ptr noundef nonnull align 8 dereferenceable(48) %0) #0 align 2 {
  %2 = alloca ptr, align 8
  store ptr %0, ptr %2, align 8, !tbaa !713
  %3 = load ptr, ptr %2, align 8
  %4 = getelementptr inbounds nuw %"class.std::_Rb_tree.195", ptr %3, i32 0, i32 0
  ret ptr %4
}

; Function Attrs: mustprogress nounwind uwtable
define internal void @"_ZNSt8_Rb_treeIPN4LIEF5MachO14RelocationDyldES3_St9_IdentityIS3_EZNS1_8DyldInfo18update_rebase_infoERNS0_15vector_iostreamEE3$_0SaIS3_EE11_M_put_nodeEPSt13_Rb_tree_nodeIS3_E"(ptr noundef nonnull align 8 dereferenceable(48) %0, ptr noundef %1) #0 align 2 {
  %3 = alloca ptr, align 8
  %4 = alloca ptr, align 8
  store ptr %0, ptr %3, align 8, !tbaa !713
  store ptr %1, ptr %4, align 8, !tbaa !715
  %5 = load ptr, ptr %3, align 8
  %6 = call noundef nonnull align 1 dereferenceable(1) ptr @"_ZNSt8_Rb_treeIPN4LIEF5MachO14RelocationDyldES3_St9_IdentityIS3_EZNS1_8DyldInfo18update_rebase_infoERNS0_15vector_iostreamEE3$_0SaIS3_EE21_M_get_Node_allocatorEv"(ptr noundef nonnull align 8 dereferenceable(48) %5) #21
  %7 = load ptr, ptr %4, align 8, !tbaa !715
  call void @_ZNSt16allocator_traitsISaISt13_Rb_tree_nodeIPN4LIEF5MachO14RelocationDyldEEEE10deallocateERS6_PS5_m(ptr noundef nonnull align 1 dereferenceable(1) %6, ptr noundef %7, i64 noundef 1)
  ret void
}

; Function Attrs: mustprogress nounwind uwtable
define internal void @"_ZNSt8_Rb_treeIPN4LIEF5MachO14RelocationDyldES3_St9_IdentityIS3_EZNS1_8DyldInfo18update_rebase_infoERNS0_15vector_iostreamEE3$_0SaIS3_EE15_M_destroy_nodeEPSt13_Rb_tree_nodeIS3_E"(ptr noundef nonnull align 8 dereferenceable(48) %0, ptr noundef %1) #0 align 2 {
  %3 = alloca ptr, align 8
  %4 = alloca ptr, align 8
  store ptr %0, ptr %3, align 8, !tbaa !713
  store ptr %1, ptr %4, align 8, !tbaa !715
  %5 = load ptr, ptr %3, align 8
  %6 = call noundef nonnull align 1 dereferenceable(1) ptr @"_ZNSt8_Rb_treeIPN4LIEF5MachO14RelocationDyldES3_St9_IdentityIS3_EZNS1_8DyldInfo18update_rebase_infoERNS0_15vector_iostreamEE3$_0SaIS3_EE21_M_get_Node_allocatorEv"(ptr noundef nonnull align 8 dereferenceable(48) %5) #21
  %7 = load ptr, ptr %4, align 8, !tbaa !715
  %8 = call noundef ptr @_ZNSt13_Rb_tree_nodeIPN4LIEF5MachO14RelocationDyldEE9_M_valptrEv(ptr noundef nonnull align 8 dereferenceable(40) %7)
  call void @_ZNSt16allocator_traitsISaISt13_Rb_tree_nodeIPN4LIEF5MachO14RelocationDyldEEEE7destroyIS4_EEvRS6_PT_(ptr noundef nonnull align 1 dereferenceable(1) %6, ptr noundef %8) #21
  ret void
}

; Function Attrs: mustprogress nounwind uwtable
define internal void @"_ZNSt8_Rb_treeIPN4LIEF5MachO14RelocationDyldES3_St9_IdentityIS3_EZNS1_8DyldInfo18update_rebase_infoERNS0_15vector_iostreamEE3$_0SaIS3_EE12_M_drop_nodeEPSt13_Rb_tree_nodeIS3_E"(ptr noundef nonnull align 8 dereferenceable(48) %0, ptr noundef %1) #0 align 2 {
  %3 = alloca ptr, align 8
  %4 = alloca ptr, align 8
  store ptr %0, ptr %3, align 8, !tbaa !713
  store ptr %1, ptr %4, align 8, !tbaa !715
  %5 = load ptr, ptr %3, align 8
  %6 = load ptr, ptr %4, align 8, !tbaa !715
  call void @"_ZNSt8_Rb_treeIPN4LIEF5MachO14RelocationDyldES3_St9_IdentityIS3_EZNS1_8DyldInfo18update_rebase_infoERNS0_15vector_iostreamEE3$_0SaIS3_EE15_M_destroy_nodeEPSt13_Rb_tree_nodeIS3_E"(ptr noundef nonnull align 8 dereferenceable(48) %5, ptr noundef %6) #21
  %7 = load ptr, ptr %4, align 8, !tbaa !715
  call void @"_ZNSt8_Rb_treeIPN4LIEF5MachO14RelocationDyldES3_St9_IdentityIS3_EZNS1_8DyldInfo18update_rebase_infoERNS0_15vector_iostreamEE3$_0SaIS3_EE11_M_put_nodeEPSt13_Rb_tree_nodeIS3_E"(ptr noundef nonnull align 8 dereferenceable(48) %5, ptr noundef %7) #21
  ret void
}

; Function Attrs: mustprogress nounwind uwtable
define internal noundef ptr @"_ZNSt8_Rb_treeIPN4LIEF5MachO14RelocationDyldES3_St9_IdentityIS3_EZNS1_8DyldInfo18update_rebase_infoERNS0_15vector_iostreamEE3$_0SaIS3_EE7_S_leftEPSt18_Rb_tree_node_base"(ptr noundef %0) #0 align 2 {
  %2 = alloca ptr, align 8
  store ptr %0, ptr %2, align 8, !tbaa !445
  %3 = load ptr, ptr %2, align 8, !tbaa !445
  %4 = getelementptr inbounds nuw %"struct.std::_Rb_tree_node_base", ptr %3, i32 0, i32 2
  %5 = load ptr, ptr %4, align 8, !tbaa !670
  ret ptr %5
}

; Function Attrs: mustprogress nounwind uwtable
define internal noundef ptr @"_ZNSt8_Rb_treeIPN4LIEF5MachO14RelocationDyldES3_St9_IdentityIS3_EZNS1_8DyldInfo18update_rebase_infoERNS0_15vector_iostreamEE3$_0SaIS3_EE8_S_rightEPSt18_Rb_tree_node_base"(ptr noundef %0) #0 align 2 {
  %2 = alloca ptr, align 8
  store ptr %0, ptr %2, align 8, !tbaa !445
  %3 = load ptr, ptr %2, align 8, !tbaa !445
  %4 = getelementptr inbounds nuw %"struct.std::_Rb_tree_node_base", ptr %3, i32 0, i32 3
  %5 = load ptr, ptr %4, align 8, !tbaa !669
  ret ptr %5
}

; Function Attrs: mustprogress nounwind uwtable
define internal void @"_ZNSt8_Rb_treeIPN4LIEF5MachO14RelocationDyldES3_St9_IdentityIS3_EZNS1_8DyldInfo18update_rebase_infoERNS0_15vector_iostreamEE3$_0SaIS3_EE8_M_eraseEPSt13_Rb_tree_nodeIS3_E"(ptr noundef nonnull align 8 dereferenceable(48) %0, ptr noundef %1) #0 align 2 {
  %3 = alloca ptr, align 8
  %4 = alloca ptr, align 8
  %5 = alloca ptr, align 8
  store ptr %0, ptr %3, align 8, !tbaa !713
  store ptr %1, ptr %4, align 8, !tbaa !715
  %6 = load ptr, ptr %3, align 8
  br label %7

7:                                                ; preds = %10, %2
  %8 = load ptr, ptr %4, align 8, !tbaa !715
  %9 = icmp ne ptr %8, null
  br i1 %9, label %10, label %17

10:                                               ; preds = %7
  %11 = load ptr, ptr %4, align 8, !tbaa !715
  %12 = call noundef ptr @"_ZNSt8_Rb_treeIPN4LIEF5MachO14RelocationDyldES3_St9_IdentityIS3_EZNS1_8DyldInfo18update_rebase_infoERNS0_15vector_iostreamEE3$_0SaIS3_EE8_S_rightEPSt18_Rb_tree_node_base"(ptr noundef %11) #21
  call void @"_ZNSt8_Rb_treeIPN4LIEF5MachO14RelocationDyldES3_St9_IdentityIS3_EZNS1_8DyldInfo18update_rebase_infoERNS0_15vector_iostreamEE3$_0SaIS3_EE8_M_eraseEPSt13_Rb_tree_nodeIS3_E"(ptr noundef nonnull align 8 dereferenceable(48) %6, ptr noundef %12)
  call void @llvm.lifetime.start.p0(i64 8, ptr %5) #21
  %13 = load ptr, ptr %4, align 8, !tbaa !715
  %14 = call noundef ptr @"_ZNSt8_Rb_treeIPN4LIEF5MachO14RelocationDyldES3_St9_IdentityIS3_EZNS1_8DyldInfo18update_rebase_infoERNS0_15vector_iostreamEE3$_0SaIS3_EE7_S_leftEPSt18_Rb_tree_node_base"(ptr noundef %13) #21
  store ptr %14, ptr %5, align 8, !tbaa !715
  %15 = load ptr, ptr %4, align 8, !tbaa !715
  call void @"_ZNSt8_Rb_treeIPN4LIEF5MachO14RelocationDyldES3_St9_IdentityIS3_EZNS1_8DyldInfo18update_rebase_infoERNS0_15vector_iostreamEE3$_0SaIS3_EE12_M_drop_nodeEPSt13_Rb_tree_nodeIS3_E"(ptr noundef nonnull align 8 dereferenceable(48) %6, ptr noundef %15) #21
  %16 = load ptr, ptr %5, align 8, !tbaa !715
  store ptr %16, ptr %4, align 8, !tbaa !715
  call void @llvm.lifetime.end.p0(i64 8, ptr %5) #21
  br label %7, !llvm.loop !717

17:                                               ; preds = %7
  ret void
}